; Function Attrs: mustprogress uwtable
define hidden void @_ZN2cv19Jpeg2KJ2KOpjDecoderC2Ev(ptr noundef nonnull align 8 dereferenceable(328) %0) unnamed_addr #3 align 2 personality ptr @__gxx_personality_v0 {
  %2 = alloca %"class.std::__cxx11::basic_string", align 8
  %3 = alloca %"class.std::allocator", align 1
  tail call void @_ZN2cv16BaseImageDecoderC2Ev(ptr noundef nonnull align 8 dereferenceable(272) %0)
  %4 = getelementptr inbounds i8, ptr %0, i64 272
  %5 = getelementptr inbounds i8, ptr %0, i64 184
  tail call void @llvm.memset.p0.i64(ptr noundef nonnull align 8 dereferenceable(56) %4, i8 0, i64 56, i1 false)
  store i8 1, ptr %5, align 8
  store ptr getelementptr inbounds inrange(-16, 104) (i8, ptr @_ZTVN2cv19Jpeg2KJ2KOpjDecoderE, i64 16), ptr %0, align 8
  call void @_ZNSaIcEC1Ev(ptr noundef nonnull align 1 dereferenceable(1) %3) #19
  invoke void @_ZNSt7__cxx1112basic_stringIcSt11char_traitsIcESaIcEEC1EPKcmRKS3_(ptr noundef nonnull align 8 dereferenceable(32) %2, ptr noundef nonnull @_ZZN2cv19Jpeg2KJ2KOpjDecoderC1EvE12J2KSignature, i64 noundef 4, ptr noundef nonnull align 1 dereferenceable(1) %3)
          to label %6 unwind label %9

6:                                                ; preds = %1
  %7 = getelementptr inbounds i8, ptr %0, i64 56
  %8 = call noundef nonnull align 8 dereferenceable(32) ptr @_ZNSt7__cxx1112basic_stringIcSt11char_traitsIcESaIcEEaSEOS4_(ptr noundef nonnull align 8 dereferenceable(32) %7, ptr noundef nonnull align 8 dereferenceable(32) %2) #19
  call void @_ZNSt7__cxx1112basic_stringIcSt11char_traitsIcESaIcEED1Ev(ptr noundef nonnull align 8 dereferenceable(32) %2) #19
  call void @_ZNSaIcED1Ev(ptr noundef nonnull align 1 dereferenceable(1) %3) #19
  ret void

9:                                                ; preds = %1
  %10 = landingpad { ptr, i32 }
          cleanup
  call void @_ZNSaIcED1Ev(ptr noundef nonnull align 1 dereferenceable(1) %3) #19
  call void @_ZN2cv6detail20Jpeg2KOpjDecoderBaseD2Ev(ptr noundef nonnull align 8 dereferenceable(328) %0) #19
  resume { ptr, i32 } %10
}